; Function Attrs: nounwind uwtable
define i32 @SSL_get_domain_flags(ptr noundef %0, ptr noundef %1) local_unnamed_addr #0 {
  %.not = icmp eq ptr %0, null
  br i1 %.not, label %8, label %3

3:                                                ; preds = %2
  %4 = load i32, ptr %0, align 8, !tbaa !19
  %5 = and i32 %4, 128
  %.not5 = icmp eq i32 %5, 0
  br i1 %.not5, label %8, label %6

6:                                                ; preds = %3
  %7 = tail call i32 @ossl_quic_get_domain_flags(ptr noundef nonnull %0, ptr noundef %1) #20
  br label %8

8:                                                ; preds = %2, %3, %6
  %.0 = phi i32 [ %7, %6 ], [ 0, %3 ], [ 0, %2 ]
  ret i32 %.0
}